target datalayout = "e-m:e-p270:32:32-p271:32:32-p272:64:64-i64:64-i128:128-f80:128-n8:16:32:64-S128"
target triple = "x86_64-pc-linux-gnu"

%struct.ELBGContext = type { i32, i32, i32, ptr, ptr, ptr, ptr, ptr, ptr, ptr, ptr, ptr, ptr, ptr, i32, i32, i32, i32, i32, i32, i32 }

; Function Attrs: nounwind uwtable
define i32 @avpriv_elbg_do(ptr noundef %0, ptr noundef %1, i32 noundef %2, i32 noundef %3, ptr noundef %4, i32 noundef %5, i32 noundef %6, ptr noundef %7, ptr noundef %8, i64 noundef %9) #0 {
  %11 = alloca i32, align 4
  %12 = alloca ptr, align 8
  %13 = alloca ptr, align 8
  %14 = alloca i32, align 4
  %15 = alloca i32, align 4
  %16 = alloca ptr, align 8
  %17 = alloca i32, align 4
  %18 = alloca i32, align 4
  %19 = alloca ptr, align 8
  %20 = alloca ptr, align 8
  %21 = alloca i64, align 8
  %22 = alloca ptr, align 8
  %23 = alloca i32, align 4
  %24 = alloca i64, align 8
  store ptr %0, ptr %12, align 8, !tbaa !4
  store ptr %1, ptr %13, align 8, !tbaa !10
  store i32 %2, ptr %14, align 4, !tbaa !12
  store i32 %3, ptr %15, align 4, !tbaa !12
  store ptr %4, ptr %16, align 8, !tbaa !10
  store i32 %5, ptr %17, align 4, !tbaa !12
  store i32 %6, ptr %18, align 4, !tbaa !12
  store ptr %7, ptr %19, align 8, !tbaa !10
  store ptr %8, ptr %20, align 8, !tbaa !14
  store i64 %9, ptr %21, align 8, !tbaa !16
  call void @llvm.lifetime.start.p0(i64 8, ptr %22) #7
  %25 = load ptr, ptr %12, align 8, !tbaa !4
  %26 = load ptr, ptr %25, align 8, !tbaa !18
  %27 = icmp ne ptr %26, null
  br i1 %27, label %28, label %31

28:                                               ; preds = %10
  %29 = load ptr, ptr %12, align 8, !tbaa !4
  %30 = load ptr, ptr %29, align 8, !tbaa !18
  br label %33

31:                                               ; preds = %10
  %32 = call noalias ptr @av_mallocz(i64 noundef 136)
  br label %33

33:                                               ; preds = %31, %28
  %34 = phi ptr [ %30, %28 ], [ %32, %31 ]
  store ptr %34, ptr %22, align 8, !tbaa !18
  %35 = load ptr, ptr %22, align 8, !tbaa !18
  %36 = icmp ne ptr %35, null
  br i1 %36, label %38, label %37

37:                                               ; preds = %33
  store i32 -12, ptr %11, align 4
  store i32 1, ptr %23, align 4
  br label %266

38:                                               ; preds = %33
  %39 = load ptr, ptr %22, align 8, !tbaa !18
  %40 = load ptr, ptr %12, align 8, !tbaa !4
  store ptr %39, ptr %40, align 8, !tbaa !18
  %41 = load ptr, ptr %19, align 8, !tbaa !10
  %42 = load ptr, ptr %22, align 8, !tbaa !18
  %43 = getelementptr inbounds nuw %struct.ELBGContext, ptr %42, i32 0, i32 7
  store ptr %41, ptr %43, align 8, !tbaa !20
  %44 = load ptr, ptr %20, align 8, !tbaa !14
  %45 = load ptr, ptr %22, align 8, !tbaa !18
  %46 = getelementptr inbounds nuw %struct.ELBGContext, ptr %45, i32 0, i32 11
  store ptr %44, ptr %46, align 8, !tbaa !24
  %47 = load ptr, ptr %16, align 8, !tbaa !10
  %48 = load ptr, ptr %22, align 8, !tbaa !18
  %49 = getelementptr inbounds nuw %struct.ELBGContext, ptr %48, i32 0, i32 3
  store ptr %47, ptr %49, align 8, !tbaa !25
  %50 = load i32, ptr %17, align 4, !tbaa !12
  %51 = load ptr, ptr %22, align 8, !tbaa !18
  %52 = getelementptr inbounds nuw %struct.ELBGContext, ptr %51, i32 0, i32 2
  store i32 %50, ptr %52, align 8, !tbaa !26
  %53 = load i32, ptr %14, align 4, !tbaa !12
  %54 = load ptr, ptr %22, align 8, !tbaa !18
  %55 = getelementptr inbounds nuw %struct.ELBGContext, ptr %54, i32 0, i32 1
  store i32 %53, ptr %55, align 4, !tbaa !27
  %56 = load ptr, ptr %22, align 8, !tbaa !18
  %57 = getelementptr inbounds nuw %struct.ELBGContext, ptr %56, i32 0, i32 17
  %58 = load i32, ptr %57, align 4, !tbaa !28
  %59 = load i32, ptr %17, align 4, !tbaa !12
  %60 = icmp ult i32 %58, %59
  br i1 %60, label %61, label %80

61:                                               ; preds = %38
  %62 = load ptr, ptr %22, align 8, !tbaa !18
  %63 = getelementptr inbounds nuw %struct.ELBGContext, ptr %62, i32 0, i32 4
  call void @av_freep(ptr noundef %63)
  %64 = load i32, ptr %17, align 4, !tbaa !12
  %65 = sext i32 %64 to i64
  %66 = call ptr @av_malloc_array(i64 noundef %65, i64 noundef 8)
  %67 = load ptr, ptr %22, align 8, !tbaa !18
  %68 = getelementptr inbounds nuw %struct.ELBGContext, ptr %67, i32 0, i32 4
  store ptr %66, ptr %68, align 8, !tbaa !29
  %69 = load ptr, ptr %22, align 8, !tbaa !18
  %70 = getelementptr inbounds nuw %struct.ELBGContext, ptr %69, i32 0, i32 4
  %71 = load ptr, ptr %70, align 8, !tbaa !29
  %72 = icmp ne ptr %71, null
  br i1 %72, label %76, label %73

73:                                               ; preds = %61
  %74 = load ptr, ptr %22, align 8, !tbaa !18
  %75 = getelementptr inbounds nuw %struct.ELBGContext, ptr %74, i32 0, i32 17
  store i32 0, ptr %75, align 4, !tbaa !28
  store i32 -12, ptr %11, align 4
  store i32 1, ptr %23, align 4
  br label %266

76:                                               ; preds = %61
  %77 = load i32, ptr %17, align 4, !tbaa !12
  %78 = load ptr, ptr %22, align 8, !tbaa !18
  %79 = getelementptr inbounds nuw %struct.ELBGContext, ptr %78, i32 0, i32 17
  store i32 %77, ptr %79, align 4, !tbaa !28
  br label %80

80:                                               ; preds = %76, %38
  %81 = load ptr, ptr %22, align 8, !tbaa !18
  %82 = getelementptr inbounds nuw %struct.ELBGContext, ptr %81, i32 0, i32 14
  %83 = load i32, ptr %82, align 8, !tbaa !30
  %84 = load i32, ptr %17, align 4, !tbaa !12
  %85 = icmp ult i32 %83, %84
  br i1 %85, label %86, label %105

86:                                               ; preds = %80
  %87 = load ptr, ptr %22, align 8, !tbaa !18
  %88 = getelementptr inbounds nuw %struct.ELBGContext, ptr %87, i32 0, i32 5
  call void @av_freep(ptr noundef %88)
  %89 = load i32, ptr %17, align 4, !tbaa !12
  %90 = sext i32 %89 to i64
  %91 = call ptr @av_malloc_array(i64 noundef %90, i64 noundef 4)
  %92 = load ptr, ptr %22, align 8, !tbaa !18
  %93 = getelementptr inbounds nuw %struct.ELBGContext, ptr %92, i32 0, i32 5
  store ptr %91, ptr %93, align 8, !tbaa !31
  %94 = load ptr, ptr %22, align 8, !tbaa !18
  %95 = getelementptr inbounds nuw %struct.ELBGContext, ptr %94, i32 0, i32 5
  %96 = load ptr, ptr %95, align 8, !tbaa !31
  %97 = icmp ne ptr %96, null
  br i1 %97, label %101, label %98

98:                                               ; preds = %86
  %99 = load ptr, ptr %22, align 8, !tbaa !18
  %100 = getelementptr inbounds nuw %struct.ELBGContext, ptr %99, i32 0, i32 14
  store i32 0, ptr %100, align 8, !tbaa !30
  store i32 -12, ptr %11, align 4
  store i32 1, ptr %23, align 4
  br label %266

101:                                              ; preds = %86
  %102 = load i32, ptr %17, align 4, !tbaa !12
  %103 = load ptr, ptr %22, align 8, !tbaa !18
  %104 = getelementptr inbounds nuw %struct.ELBGContext, ptr %103, i32 0, i32 14
  store i32 %102, ptr %104, align 8, !tbaa !30
  br label %105

105:                                              ; preds = %101, %80
  %106 = load ptr, ptr %22, align 8, !tbaa !18
  %107 = getelementptr inbounds nuw %struct.ELBGContext, ptr %106, i32 0, i32 15
  %108 = load i32, ptr %107, align 4, !tbaa !32
  %109 = load i32, ptr %17, align 4, !tbaa !12
  %110 = icmp ult i32 %108, %109
  br i1 %110, label %111, label %130

111:                                              ; preds = %105
  %112 = load ptr, ptr %22, align 8, !tbaa !18
  %113 = getelementptr inbounds nuw %struct.ELBGContext, ptr %112, i32 0, i32 6
  call void @av_freep(ptr noundef %113)
  %114 = load i32, ptr %17, align 4, !tbaa !12
  %115 = sext i32 %114 to i64
  %116 = call ptr @av_malloc_array(i64 noundef %115, i64 noundef 4)
  %117 = load ptr, ptr %22, align 8, !tbaa !18
  %118 = getelementptr inbounds nuw %struct.ELBGContext, ptr %117, i32 0, i32 6
  store ptr %116, ptr %118, align 8, !tbaa !33
  %119 = load ptr, ptr %22, align 8, !tbaa !18
  %120 = getelementptr inbounds nuw %struct.ELBGContext, ptr %119, i32 0, i32 6
  %121 = load ptr, ptr %120, align 8, !tbaa !33
  %122 = icmp ne ptr %121, null
  br i1 %122, label %126, label %123

123:                                              ; preds = %111
  %124 = load ptr, ptr %22, align 8, !tbaa !18
  %125 = getelementptr inbounds nuw %struct.ELBGContext, ptr %124, i32 0, i32 15
  store i32 0, ptr %125, align 4, !tbaa !32
  store i32 -12, ptr %11, align 4
  store i32 1, ptr %23, align 4
  br label %266

126:                                              ; preds = %111
  %127 = load i32, ptr %17, align 4, !tbaa !12
  %128 = load ptr, ptr %22, align 8, !tbaa !18
  %129 = getelementptr inbounds nuw %struct.ELBGContext, ptr %128, i32 0, i32 15
  store i32 %127, ptr %129, align 4, !tbaa !32
  br label %130

130:                                              ; preds = %126, %105
  %131 = load ptr, ptr %22, align 8, !tbaa !18
  %132 = getelementptr inbounds nuw %struct.ELBGContext, ptr %131, i32 0, i32 16
  %133 = load i32, ptr %132, align 8, !tbaa !34
  %134 = load i32, ptr %17, align 4, !tbaa !12
  %135 = icmp ult i32 %133, %134
  br i1 %135, label %136, label %155

136:                                              ; preds = %130
  %137 = load ptr, ptr %22, align 8, !tbaa !18
  %138 = getelementptr inbounds nuw %struct.ELBGContext, ptr %137, i32 0, i32 10
  call void @av_freep(ptr noundef %138)
  %139 = load i32, ptr %17, align 4, !tbaa !12
  %140 = sext i32 %139 to i64
  %141 = call ptr @av_malloc_array(i64 noundef %140, i64 noundef 4)
  %142 = load ptr, ptr %22, align 8, !tbaa !18
  %143 = getelementptr inbounds nuw %struct.ELBGContext, ptr %142, i32 0, i32 10
  store ptr %141, ptr %143, align 8, !tbaa !35
  %144 = load ptr, ptr %22, align 8, !tbaa !18
  %145 = getelementptr inbounds nuw %struct.ELBGContext, ptr %144, i32 0, i32 10
  %146 = load ptr, ptr %145, align 8, !tbaa !35
  %147 = icmp ne ptr %146, null
  br i1 %147, label %151, label %148

148:                                              ; preds = %136
  %149 = load ptr, ptr %22, align 8, !tbaa !18
  %150 = getelementptr inbounds nuw %struct.ELBGContext, ptr %149, i32 0, i32 16
  store i32 0, ptr %150, align 8, !tbaa !34
  store i32 -12, ptr %11, align 4
  store i32 1, ptr %23, align 4
  br label %266

151:                                              ; preds = %136
  %152 = load i32, ptr %17, align 4, !tbaa !12
  %153 = load ptr, ptr %22, align 8, !tbaa !18
  %154 = getelementptr inbounds nuw %struct.ELBGContext, ptr %153, i32 0, i32 16
  store i32 %152, ptr %154, align 8, !tbaa !34
  br label %155

155:                                              ; preds = %151, %130
  %156 = load ptr, ptr %22, align 8, !tbaa !18
  %157 = getelementptr inbounds nuw %struct.ELBGContext, ptr %156, i32 0, i32 19
  %158 = load i32, ptr %157, align 4, !tbaa !36
  %159 = load i32, ptr %15, align 4, !tbaa !12
  %160 = icmp ult i32 %158, %159
  br i1 %160, label %161, label %180

161:                                              ; preds = %155
  %162 = load ptr, ptr %22, align 8, !tbaa !18
  %163 = getelementptr inbounds nuw %struct.ELBGContext, ptr %162, i32 0, i32 13
  call void @av_freep(ptr noundef %163)
  %164 = load i32, ptr %15, align 4, !tbaa !12
  %165 = sext i32 %164 to i64
  %166 = call ptr @av_malloc_array(i64 noundef %165, i64 noundef 16)
  %167 = load ptr, ptr %22, align 8, !tbaa !18
  %168 = getelementptr inbounds nuw %struct.ELBGContext, ptr %167, i32 0, i32 13
  store ptr %166, ptr %168, align 8, !tbaa !37
  %169 = load ptr, ptr %22, align 8, !tbaa !18
  %170 = getelementptr inbounds nuw %struct.ELBGContext, ptr %169, i32 0, i32 13
  %171 = load ptr, ptr %170, align 8, !tbaa !37
  %172 = icmp ne ptr %171, null
  br i1 %172, label %176, label %173

173:                                              ; preds = %161
  %174 = load ptr, ptr %22, align 8, !tbaa !18
  %175 = getelementptr inbounds nuw %struct.ELBGContext, ptr %174, i32 0, i32 19
  store i32 0, ptr %175, align 4, !tbaa !36
  store i32 -12, ptr %11, align 4
  store i32 1, ptr %23, align 4
  br label %266

176:                                              ; preds = %161
  %177 = load i32, ptr %15, align 4, !tbaa !12
  %178 = load ptr, ptr %22, align 8, !tbaa !18
  %179 = getelementptr inbounds nuw %struct.ELBGContext, ptr %178, i32 0, i32 19
  store i32 %177, ptr %179, align 4, !tbaa !36
  br label %180

180:                                              ; preds = %176, %155
  %181 = load ptr, ptr %22, align 8, !tbaa !18
  %182 = getelementptr inbounds nuw %struct.ELBGContext, ptr %181, i32 0, i32 18
  %183 = load i32, ptr %182, align 8, !tbaa !38
  %184 = load i32, ptr %14, align 4, !tbaa !12
  %185 = icmp ult i32 %183, %184
  br i1 %185, label %186, label %205

186:                                              ; preds = %180
  %187 = load ptr, ptr %22, align 8, !tbaa !18
  %188 = getelementptr inbounds nuw %struct.ELBGContext, ptr %187, i32 0, i32 12
  call void @av_freep(ptr noundef %188)
  %189 = load i32, ptr %14, align 4, !tbaa !12
  %190 = sext i32 %189 to i64
  %191 = call ptr @av_malloc_array(i64 noundef %190, i64 noundef 20)
  %192 = load ptr, ptr %22, align 8, !tbaa !18
  %193 = getelementptr inbounds nuw %struct.ELBGContext, ptr %192, i32 0, i32 12
  store ptr %191, ptr %193, align 8, !tbaa !39
  %194 = load ptr, ptr %22, align 8, !tbaa !18
  %195 = getelementptr inbounds nuw %struct.ELBGContext, ptr %194, i32 0, i32 12
  %196 = load ptr, ptr %195, align 8, !tbaa !39
  %197 = icmp ne ptr %196, null
  br i1 %197, label %201, label %198

198:                                              ; preds = %186
  %199 = load ptr, ptr %22, align 8, !tbaa !18
  %200 = getelementptr inbounds nuw %struct.ELBGContext, ptr %199, i32 0, i32 18
  store i32 0, ptr %200, align 8, !tbaa !38
  store i32 -12, ptr %11, align 4
  store i32 1, ptr %23, align 4
  br label %266

201:                                              ; preds = %186
  %202 = load i32, ptr %14, align 4, !tbaa !12
  %203 = load ptr, ptr %22, align 8, !tbaa !18
  %204 = getelementptr inbounds nuw %struct.ELBGContext, ptr %203, i32 0, i32 18
  store i32 %202, ptr %204, align 8, !tbaa !38
  br label %205

205:                                              ; preds = %201, %180
  %206 = load i32, ptr %15, align 4, !tbaa !12
  %207 = sext i32 %206 to i64
  %208 = load ptr, ptr %22, align 8, !tbaa !18
  %209 = getelementptr inbounds nuw %struct.ELBGContext, ptr %208, i32 0, i32 2
  %210 = load i32, ptr %209, align 8, !tbaa !26
  %211 = sext i32 %210 to i64
  %212 = mul nsw i64 24, %211
  %213 = icmp sgt i64 %207, %212
  br i1 %213, label %214, label %254

214:                                              ; preds = %205
  call void @llvm.lifetime.start.p0(i64 8, ptr %24) #7
  %215 = load i32, ptr %14, align 4, !tbaa !12
  %216 = sext i32 %215 to i64
  %217 = load i32, ptr %15, align 4, !tbaa !12
  %218 = udiv i32 %217, 7
  %219 = zext i32 %218 to i64
  %220 = mul i64 %216, %219
  store i64 %220, ptr %24, align 8, !tbaa !16
  %221 = load i64, ptr %24, align 8, !tbaa !16
  %222 = icmp ugt i64 %221, 2147483647
  br i1 %222, label %223, label %224

223:                                              ; preds = %214
  store i32 -34, ptr %11, align 4
  store i32 1, ptr %23, align 4
  br label %251

224:                                              ; preds = %214
  %225 = load ptr, ptr %22, align 8, !tbaa !18
  %226 = getelementptr inbounds nuw %struct.ELBGContext, ptr %225, i32 0, i32 20
  %227 = load i32, ptr %226, align 8, !tbaa !40
  %228 = zext i32 %227 to i64
  %229 = load i64, ptr %24, align 8, !tbaa !16
  %230 = icmp ult i64 %228, %229
  br i1 %230, label %231, label %250

231:                                              ; preds = %224
  %232 = load ptr, ptr %22, align 8, !tbaa !18
  %233 = getelementptr inbounds nuw %struct.ELBGContext, ptr %232, i32 0, i32 9
  call void @av_freep(ptr noundef %233)
  %234 = load i64, ptr %24, align 8, !tbaa !16
  %235 = call ptr @av_malloc_array(i64 noundef %234, i64 noundef 4)
  %236 = load ptr, ptr %22, align 8, !tbaa !18
  %237 = getelementptr inbounds nuw %struct.ELBGContext, ptr %236, i32 0, i32 9
  store ptr %235, ptr %237, align 8, !tbaa !41
  %238 = load ptr, ptr %22, align 8, !tbaa !18
  %239 = getelementptr inbounds nuw %struct.ELBGContext, ptr %238, i32 0, i32 9
  %240 = load ptr, ptr %239, align 8, !tbaa !41
  %241 = icmp ne ptr %240, null
  br i1 %241, label %245, label %242

242:                                              ; preds = %231
  %243 = load ptr, ptr %22, align 8, !tbaa !18
  %244 = getelementptr inbounds nuw %struct.ELBGContext, ptr %243, i32 0, i32 20
  store i32 0, ptr %244, align 8, !tbaa !40
  store i32 -12, ptr %11, align 4
  store i32 1, ptr %23, align 4
  br label %251

245:                                              ; preds = %231
  %246 = load i64, ptr %24, align 8, !tbaa !16
  %247 = trunc i64 %246 to i32
  %248 = load ptr, ptr %22, align 8, !tbaa !18
  %249 = getelementptr inbounds nuw %struct.ELBGContext, ptr %248, i32 0, i32 20
  store i32 %247, ptr %249, align 8, !tbaa !40
  br label %250

250:                                              ; preds = %245, %224
  store i32 0, ptr %23, align 4
  br label %251

251:                                              ; preds = %250, %242, %223
  call void @llvm.lifetime.end.p0(i64 8, ptr %24) #7
  %252 = load i32, ptr %23, align 4
  switch i32 %252, label %266 [
    i32 0, label %253
  ]

253:                                              ; preds = %251
  br label %254

254:                                              ; preds = %253, %205
  %255 = load ptr, ptr %22, align 8, !tbaa !18
  %256 = load ptr, ptr %13, align 8, !tbaa !10
  %257 = load ptr, ptr %22, align 8, !tbaa !18
  %258 = getelementptr inbounds nuw %struct.ELBGContext, ptr %257, i32 0, i32 9
  %259 = load ptr, ptr %258, align 8, !tbaa !41
  %260 = load i32, ptr %15, align 4, !tbaa !12
  %261 = load i32, ptr %18, align 4, !tbaa !12
  call void @init_elbg(ptr noundef %255, ptr noundef %256, ptr noundef %259, i32 noundef %260, i32 noundef %261)
  %262 = load ptr, ptr %22, align 8, !tbaa !18
  %263 = load ptr, ptr %13, align 8, !tbaa !10
  %264 = load i32, ptr %15, align 4, !tbaa !12
  %265 = load i32, ptr %18, align 4, !tbaa !12
  call void @do_elbg(ptr noundef %262, ptr noundef %263, i32 noundef %264, i32 noundef %265)
  store i32 0, ptr %11, align 4
  store i32 1, ptr %23, align 4
  br label %266

266:                                              ; preds = %254, %251, %198, %173, %148, %123, %98, %73, %37
  call void @llvm.lifetime.end.p0(i64 8, ptr %22) #7
  %267 = load i32, ptr %11, align 4
  ret i32 %267
}