; Function Attrs: nounwind uwtable
define range(i32 -34, 1) i32 @avpriv_elbg_do(ptr noundef captures(none) %0, ptr noundef %1, i32 noundef %2, i32 noundef %3, ptr noundef %4, i32 noundef %5, i32 noundef %6, ptr noundef %7, ptr noundef %8, i64 noundef %9) local_unnamed_addr #0 {
  %11 = load ptr, ptr %0, align 8, !tbaa !4
  %.not = icmp eq ptr %11, null
  br i1 %.not, label %12, label %.thread

12:                                               ; preds = %10
  %13 = tail call noalias ptr @av_mallocz(i64 noundef 136) #9
  %.not101 = icmp eq ptr %13, null
  br i1 %.not101, label %104, label %.thread

.thread:                                          ; preds = %10, %12
  %14 = phi ptr [ %13, %12 ], [ %11, %10 ]
  store ptr %14, ptr %0, align 8, !tbaa !4
  %15 = getelementptr inbounds nuw i8, ptr %14, i64 48
  store ptr %7, ptr %15, align 8, !tbaa !9
  %16 = getelementptr inbounds nuw i8, ptr %14, i64 80
  store ptr %8, ptr %16, align 8, !tbaa !17
  %17 = getelementptr inbounds nuw i8, ptr %14, i64 16
  store ptr %4, ptr %17, align 8, !tbaa !18
  %18 = getelementptr inbounds nuw i8, ptr %14, i64 8
  store i32 %5, ptr %18, align 8, !tbaa !19
  %19 = getelementptr inbounds nuw i8, ptr %14, i64 4
  store i32 %2, ptr %19, align 4, !tbaa !20
  %20 = getelementptr inbounds nuw i8, ptr %14, i64 116
  %21 = load i32, ptr %20, align 4, !tbaa !21
  %22 = icmp ult i32 %21, %5
  br i1 %22, label %23, label %29

23:                                               ; preds = %.thread
  %24 = getelementptr inbounds nuw i8, ptr %14, i64 24
  tail call void @av_freep(ptr noundef nonnull %24) #9
  %25 = sext i32 %5 to i64
  %26 = tail call ptr @av_malloc_array(i64 noundef %25, i64 noundef 8) #9
  store ptr %26, ptr %24, align 8, !tbaa !22
  %.not102 = icmp eq ptr %26, null
  br i1 %.not102, label %27, label %28

27:                                               ; preds = %23
  store i32 0, ptr %20, align 4, !tbaa !21
  br label %104

28:                                               ; preds = %23
  store i32 %5, ptr %20, align 4, !tbaa !21
  br label %29

29:                                               ; preds = %28, %.thread
  %30 = getelementptr inbounds nuw i8, ptr %14, i64 104
  %31 = load i32, ptr %30, align 8, !tbaa !23
  %32 = icmp ult i32 %31, %5
  br i1 %32, label %33, label %39

33:                                               ; preds = %29
  %34 = getelementptr inbounds nuw i8, ptr %14, i64 32
  tail call void @av_freep(ptr noundef nonnull %34) #9
  %35 = sext i32 %5 to i64
  %36 = tail call ptr @av_malloc_array(i64 noundef %35, i64 noundef 4) #9
  store ptr %36, ptr %34, align 8, !tbaa !24
  %.not103 = icmp eq ptr %36, null
  br i1 %.not103, label %37, label %38

37:                                               ; preds = %33
  store i32 0, ptr %30, align 8, !tbaa !23
  br label %104

38:                                               ; preds = %33
  store i32 %5, ptr %30, align 8, !tbaa !23
  br label %39

39:                                               ; preds = %38, %29
  %40 = getelementptr inbounds nuw i8, ptr %14, i64 108
  %41 = load i32, ptr %40, align 4, !tbaa !25
  %42 = icmp ult i32 %41, %5
  br i1 %42, label %43, label %49

43:                                               ; preds = %39
  %44 = getelementptr inbounds nuw i8, ptr %14, i64 40
  tail call void @av_freep(ptr noundef nonnull %44) #9
  %45 = sext i32 %5 to i64
  %46 = tail call ptr @av_malloc_array(i64 noundef %45, i64 noundef 4) #9
  store ptr %46, ptr %44, align 8, !tbaa !26
  %.not104 = icmp eq ptr %46, null
  br i1 %.not104, label %47, label %48

47:                                               ; preds = %43
  store i32 0, ptr %40, align 4, !tbaa !25
  br label %104

48:                                               ; preds = %43
  store i32 %5, ptr %40, align 4, !tbaa !25
  br label %49

49:                                               ; preds = %48, %39
  %50 = getelementptr inbounds nuw i8, ptr %14, i64 112
  %51 = load i32, ptr %50, align 8, !tbaa !27
  %52 = icmp ult i32 %51, %5
  br i1 %52, label %53, label %59

53:                                               ; preds = %49
  %54 = getelementptr inbounds nuw i8, ptr %14, i64 72
  tail call void @av_freep(ptr noundef nonnull %54) #9
  %55 = sext i32 %5 to i64
  %56 = tail call ptr @av_malloc_array(i64 noundef %55, i64 noundef 4) #9
  store ptr %56, ptr %54, align 8, !tbaa !28
  %.not105 = icmp eq ptr %56, null
  br i1 %.not105, label %57, label %58

57:                                               ; preds = %53
  store i32 0, ptr %50, align 8, !tbaa !27
  br label %104

58:                                               ; preds = %53
  store i32 %5, ptr %50, align 8, !tbaa !27
  br label %59

59:                                               ; preds = %58, %49
  %60 = getelementptr inbounds nuw i8, ptr %14, i64 124
  %61 = load i32, ptr %60, align 4, !tbaa !29
  %62 = icmp ult i32 %61, %3
  br i1 %62, label %63, label %69

63:                                               ; preds = %59
  %64 = getelementptr inbounds nuw i8, ptr %14, i64 96
  tail call void @av_freep(ptr noundef nonnull %64) #9
  %65 = sext i32 %3 to i64
  %66 = tail call ptr @av_malloc_array(i64 noundef %65, i64 noundef 16) #9
  store ptr %66, ptr %64, align 8, !tbaa !30
  %.not106 = icmp eq ptr %66, null
  br i1 %.not106, label %67, label %68

67:                                               ; preds = %63
  store i32 0, ptr %60, align 4, !tbaa !29
  br label %104

68:                                               ; preds = %63
  store i32 %3, ptr %60, align 4, !tbaa !29
  br label %69

69:                                               ; preds = %68, %59
  %70 = getelementptr inbounds nuw i8, ptr %14, i64 120
  %71 = load i32, ptr %70, align 8, !tbaa !31
  %72 = icmp ult i32 %71, %2
  br i1 %72, label %73, label %79

73:                                               ; preds = %69
  %74 = getelementptr inbounds nuw i8, ptr %14, i64 88
  tail call void @av_freep(ptr noundef nonnull %74) #9
  %75 = sext i32 %2 to i64
  %76 = tail call ptr @av_malloc_array(i64 noundef %75, i64 noundef 20) #9
  store ptr %76, ptr %74, align 8, !tbaa !32
  %.not107 = icmp eq ptr %76, null
  br i1 %.not107, label %77, label %78

77:                                               ; preds = %73
  store i32 0, ptr %70, align 8, !tbaa !31
  br label %104

78:                                               ; preds = %73
  store i32 %2, ptr %70, align 8, !tbaa !31
  br label %79

79:                                               ; preds = %78, %69
  %80 = sext i32 %3 to i64
  %81 = load i32, ptr %18, align 8, !tbaa !19
  %82 = sext i32 %81 to i64
  %83 = mul nsw i64 %82, 24
  %84 = icmp slt i64 %83, %80
  br i1 %84, label %85, label %.thread110

85:                                               ; preds = %79
  %86 = sext i32 %2 to i64
  %87 = udiv i32 %3, 7
  %88 = zext nneg i32 %87 to i64
  %89 = mul nsw i64 %88, %86
  %90 = icmp ugt i64 %89, 2147483647
  br i1 %90, label %104, label %91

91:                                               ; preds = %85
  %92 = getelementptr inbounds nuw i8, ptr %14, i64 128
  %93 = load i32, ptr %92, align 8, !tbaa !33
  %94 = zext i32 %93 to i64
  %95 = icmp samesign ugt i64 %89, %94
  br i1 %95, label %96, label %.thread110

96:                                               ; preds = %91
  %97 = getelementptr inbounds nuw i8, ptr %14, i64 64
  tail call void @av_freep(ptr noundef nonnull %97) #9
  %98 = tail call ptr @av_malloc_array(i64 noundef %89, i64 noundef 4) #9
  store ptr %98, ptr %97, align 8, !tbaa !34
  %.not108 = icmp eq ptr %98, null
  br i1 %.not108, label %99, label %100

99:                                               ; preds = %96
  store i32 0, ptr %92, align 8, !tbaa !33
  br label %104

100:                                              ; preds = %96
  %101 = trunc nuw nsw i64 %89 to i32
  store i32 %101, ptr %92, align 8, !tbaa !33
  br label %.thread110

.thread110:                                       ; preds = %91, %100, %79
  %102 = getelementptr inbounds nuw i8, ptr %14, i64 64
  %103 = load ptr, ptr %102, align 8, !tbaa !34
  tail call fastcc void @init_elbg(ptr noundef %14, ptr noundef %1, ptr noundef %103, i32 noundef %3, i32 noundef %6)
  tail call fastcc void @do_elbg(ptr noundef %14, ptr noundef %1, i32 noundef %3, i32 noundef %6)
  br label %104

104:                                              ; preds = %99, %85, %12, %.thread110, %77, %67, %57, %47, %37, %27
  %.0 = phi i32 [ 0, %.thread110 ], [ -12, %77 ], [ -12, %67 ], [ -12, %57 ], [ -12, %47 ], [ -12, %37 ], [ -12, %27 ], [ -12, %12 ], [ -12, %99 ], [ -34, %85 ]
  ret i32 %.0
}